# file opened: C:\Users\Manuel Cencerrado\OneDrive - UFV\Escritorio\UFV\ING.INF\2\AOC\Practicas\Ejercicios\practicaConecta4\main.asm
  1   0000              ; main.asm - Programa principal Conecta 4 (ZX Spectrum)
  2   0000              ; Inicialización, bucle principal, gestión de jugadas y subrutinas auxiliares
  3   0000
  4   0000                  DEVICE ZXSPECTRUM48
  5   0000                  ORG $8000
  6   8000 31 00 00         LD SP, 0
  7   8003 3E 00            LD A, 0 ; Valor inicial de A
  8   8005 D3 FE            OUT ($FE), A ; Colorea el marco de la pantalla en negro
  9   8007 C3 05 C0         JP INICIO
 10   800A
 11   800A              ; INCLUDES - módulos y rutinas auxiliares
 12   800A                  INCLUDE "colors.asm"         ; Definiciones de colores y jugadores
# file opened: C:\Users\Manuel Cencerrado\OneDrive - UFV\Escritorio\UFV\ING.INF\2\AOC\Practicas\Ejercicios\practicaConecta4\colors.asm
  1+  800A              ; CONSTANTES DE COLORES
  2+  800A              ; Valores de atributos de color (ej.: usado para imprimir texto en pantalla)
  3+  800A              COLOR_TEXTO_AZUL     EQU 1    ; Color azul (atributo de color 1)
  4+  800A              COLOR_TEXTO_ROJO     EQU 2    ; Color rojo  (atributo de color 2)
  5+  800A              COLOR_TEXTO_AMARILLO EQU 6   ; Color amarillo (atributo de color 6)
  6+  800A              BLINK                EQU 128  ; Bit de parpadeo (MSB del atributo). Combinar con OR: BLINK | color
  7+  800A              ; COLORES DISPONIBLES
  8+  800A              NEGRO               EQU 0    ; Color negro / fondo (valor 0)
  9+  800A              AZUL                EQU 1
 10+  800A              ; DISPONIBLES PARA JUGADORES, EL AZUL Y EL NEGRO DEBEN QUEDAR RESERVADOS PARA EL TABLERO
 11+  800A              COLOR_ROJO                EQU 2
 12+  800A              COLOR_MAGENTA             EQU 3
 13+  800A              COLOR_VERDE               EQU 4
 14+  800A              COLOR_CELESTE             EQU 5
 15+  800A              COLOR_AMARILLO            EQU 6
 16+  800A              COLOR_BLANCO              EQU 7
 17+  800A
 18+  800A              COLOR_BLANCO_FONDO_GANADOR EQU 7+7*8
# file closed: C:\Users\Manuel Cencerrado\OneDrive - UFV\Escritorio\UFV\ING.INF\2\AOC\Practicas\Ejercicios\practicaConecta4\colors.asm
 13   800A                  INCLUDE "variables.asm"      ; Variables globales y estado del juego
# file opened: C:\Users\Manuel Cencerrado\OneDrive - UFV\Escritorio\UFV\ING.INF\2\AOC\Practicas\Ejercicios\practicaConecta4\variables.asm
  1+  800A 18 FE        VARIABLES: JR VARIABLES
  2+  800C              ; variables.asm - Definición de constantes globales para el juego
  3+  800C              JUGADOR1 EQU 1
  4+  800C              JUGADOR2 EQU 2
  5+  800C              ; TOCA AQUI PARA MODIFICAR EL COLOR DE CUALQUIERA DE LOS DOS JUGADORES
  6+  800C              ; NOTA, UTILIZAR EL COLOR AZUL O EL NEGRO RESULTARÁ EN QUE NO SE NOTEN
  7+  800C              ; DIFERENCIAS ENTRE LAS FICHAS Y EL FONDO O LOS BORDES DEL TABLERO
  8+  800C              COLOR_JUGADOR1 EQU COLOR_CELESTE
  9+  800C              COLOR_JUGADOR2 EQU COLOR_MAGENTA
 10+  800C              ; DEFINICION DEL JUGADOR ACTUAL Y SU COLOR
 11+  800C 02           JUGADOR_ACTUAL: DB JUGADOR2
 12+  800D 03           COLOR_JUGADOR_ACTUAL: DB COLOR_JUGADOR2
 13+  800E 00           GANADOR: DB 0 ; CUANDO SE ENCUENTRE UN GANADOR, REALIZAR-- LD A, (COLOR_JUGADOR_ACTUAL): LD (GANADOR), A
 14+  800F              ; CONTADOR: valor usado para temporización en rutinas de espera (delay)
 15+  800F              CONTADOR EQU $0625
 16+  800F              ; NUM_FILAS: número total de filas en la pantalla (útil para posicionamiento y bucles)
 17+  800F              NUM_FILAS EQU 24
 18+  800F              ; NUM_COLS: número total de columnas en la pantalla (útil para posicionamiento y bucles)
 19+  800F              NUM_COLS EQU 32
 20+  800F              ; DIMENSIONES DEL TABLERO
 21+  800F              FILAS_TABLERO EQU 6
 22+  800F              COLUMNAS_TABLERO EQU 7
 23+  800F              ; DIMENSIONES DE DESPLAZAMIENTO POR EL TABLERO EN DB
 24+  800F              COLUMN_BOARD_SIZE EQU 7 ; DESPLAZAMIENTO QUE SE DEBE HACER PARA MOVERSE POR COLUMNAS EN EL TABLERO DE DB
 25+  800F              ROW_BOARD_SIZE    EQU 1 ; DESPLAZAMIENTO QUE SE DEBE HACER PARA MOVERSE POR FILAS EN EL TABLERO DE DB
 26+  800F              ; CONTADORES DE CONSECUTIVOS
 27+  800F 00           LEFT_COUNTER: DB 0
 28+  8010 00           RIGHT_COUNTER: DB 0
 29+  8011              ; TABLERO EN DB
 30+  8011 FF FF FF FF  TOP_BORDER:     DB $FF, $FF, $FF, $FF, $FF, $FF, $FF, $FF
 30+  8015 FF FF FF FF
 31+  8019 00 00 00 00  TABLERO_ACTUAL: DB 0,0,0,0,0,0, $FF ; 00 10 20 30 40 50 (TOP LEFT CORNER TO BOTTOM LEFT CORNER)
 31+  801D 00 00 FF
 32+  8020 00 00 00 00                  DB 0,0,0,0,0,0, $FF ; 01 11 21 31 41 51
 32+  8024 00 00 FF
 33+  8027 00 00 00 00                  DB 0,0,0,0,0,0, $FF ; 02 12 22 32 42 52
 33+  802B 00 00 FF
 34+  802E 00 00 00 00                  DB 0,0,0,0,0,0, $FF ; 03 13 23 33 43 53
 34+  8032 00 00 FF
 35+  8035 00 00 00 00                  DB 0,0,0,0,0,0, $FF ; 04 14 24 34 44 54
 35+  8039 00 00 FF
 36+  803C 00 00 00 00                  DB 0,0,0,0,0,0, $FF ; 05 15 25 35 45 55
 36+  8040 00 00 FF
 37+  8043 00 00 00 00                  DB 0,0,0,0,0,0, $FF ; 06 16 26 36 46 56 (TOP RIGHT CORNER TO BOTTOM RIGHT CORNER)
 37+  8047 00 00 FF
 38+  804A FF FF FF FF                  DB $FF, $FF, $FF, $FF, $FF, $FF, $FF
 38+  804E FF FF FF
 39+  8051
# file closed: C:\Users\Manuel Cencerrado\OneDrive - UFV\Escritorio\UFV\ING.INF\2\AOC\Practicas\Ejercicios\practicaConecta4\variables.asm
 14   8051                  INCLUDE "keyboard.asm"       ; Rutinas de lectura de teclado
# file opened: C:\Users\Manuel Cencerrado\OneDrive - UFV\Escritorio\UFV\ING.INF\2\AOC\Practicas\Ejercicios\practicaConecta4\keyboard.asm
  1+  8051              ; keyboard.asm - rutinas de lectura de teclado
  2+  8051              ; Convención general:
  3+  8051              ;  - El puerto de teclado se accede con IN A,(C) usando C=$FE (puerto 0xFE típico de ZX Spectrum)
  4+  8051              ;  - El código prueba bits concretos del registro A (BIT n, A). Si el bit es 0 => tecla pulsada
  5+  8051              ;  - Después de detectar una pulsación, las rutinas esperan a la liberación de la tecla
  6+  8051              ;    haciendo bucles que leen IN A,(C) y comparan (A AND $1F) con $1F (estado sin teclas).
  7+  8051
  8+  8051              K_SON: ; LECTURA DE TECLADO PARA 'S' O 'N' (respuesta S/N)
  9+  8051 0E FE            LD C, $FE            ; puerto de lectura del teclado
 10+  8053
 11+  8053              ; KSON_BUCLE
 12+  8053              ; - Bucle que escanea el teclado hasta detectar S o N
 13+  8053              KSON_BUCLE:
 14+  8053 06 FD            LD B, $FD            ; (valor de fila / máscara usada en el esquema de teclado)
 15+  8055 ED 78            IN A, (C)            ; leer estado de las líneas del teclado
 16+  8057 CB 4F            BIT 1, A             ; prueba el bit 1 -> si Z (bit=0) la tecla correspondiente está pulsada
 17+  8059 28 0E            JR Z, KSON_S
 18+  805B
 19+  805B 06 7F            LD B, $7F            ; cambiar máscara/fila para comprobar la otra tecla
 20+  805D ED 78            IN A, (C)
 21+  805F CB 5F            BIT 3, A             ; prueba el bit 3 -> si Z la tecla 'N' está pulsada
 22+  8061 28 02            JR Z, KSON_N
 23+  8063
 24+  8063 20 EE            JR NZ, KSON_BUCLE    ; si ninguna detectada, repetir
 25+  8065
 26+  8065              KSON_N:
 27+  8065 16 4E            LD D, 'N'            ; devuelve en D el carácter 'N' si se detectó esa tecla
 28+  8067 18 02            JR KSON_RELEASE
 29+  8069
 30+  8069              KSON_S:
 31+  8069 16 53            LD D, 'S'            ; devuelve en D el carácter 'S' si se detectó esa tecla
 32+  806B
 33+  806B              ; KSON_RELEASE
 34+  806B              ; - Espera a que la tecla no este pulsada antes de retornar (anti-rebotes/simple debounce)
 35+  806B              KSON_RELEASE:
 36+  806B ED 78            IN A, (C)
 37+  806D E6 1F            AND $1F
 38+  806F FE 1F            CP $1F
 39+  8071 20 F8            JR NZ, KSON_RELEASE
 40+  8073
 41+  8073 C9               RET ; FIN DE KSON (D contiene 'S' o 'N')
 42+  8074
 43+  8074              ; K_LR_E_F
 44+  8074              ; - Rutina de lectura de teclado para las teclas Q (LEFT), W (RIGHT), ENTER (soltar ficha) o F
 45+  8074              K_LR_E_F:
 46+  8074 0E FE            LD C, $FE            ; puerto de lectura
 47+  8076 F5               PUSH AF
 48+  8077
 49+  8077              ; KLREF_BUCLE
 50+  8077              ; - Bucle que lee el teclado hasta detectar una de las teclas Q, W, ENTER o F con el uso de los bits
 51+  8077              ; - Esta rutina es para el jugador 1
 52+  8077              KLREF_BUCLE:
 53+  8077 3A 0C 80         LD A, (JUGADOR_ACTUAL)
 54+  807A FE 02            CP 2
 55+  807C 28 1A            JR Z, KLREF_BUCLE_J2
 56+  807E 06 FB            LD B, $FB            ; seleccionar/activar fila de teclado
 57+  8080 ED 78            IN A, (C)
 58+  8082 CB 47            BIT 0, A             ; si bit0 = 0 -> tecla Q
 59+  8084 28 4A            JR Z, KLREF_Q
 60+  8086 CB 4F            BIT 1, A             ; si bit1 = 0 -> tecla W
 61+  8088 28 42            JR Z, KLREF_W
 62+  808A CB 57            BIT 2, A
 63+  808C 28 3A            JR Z, KLREF_E
 64+  808E
 65+  808E 06 FD            LD B, $FD            ; otra fila para F
 66+  8090 ED 78            IN A, (C)
 67+  8092 CB 5F            BIT 3, A             ; si bit3 = 0 -> tecla F
 68+  8094 28 48            JR Z, KLREF_F
 69+  8096
 70+  8096 18 DF            JR KLREF_BUCLE       ; repetir hasta detectar una tecla
 71+  8098
 72+  8098              ; KLREF_BUCLE_J2
 73+  8098              ; - Bucle que lee el teclado hasta detectar una de las teclas O, P, ENTER o F
 74+  8098              ; - Esta rutina es para el jugador 2
 75+  8098              KLREF_BUCLE_J2:
 76+  8098 06 DF            LD B, $DF            ; seleccionar/activar fila de teclado
 77+  809A ED 78            IN A, (C)
 78+  809C CB 47            BIT 0, A             ; si bit0 = 0 -> tecla P
 79+  809E 28 12            JR Z, KLREF_P
 80+  80A0 CB 4F            BIT 1, A             ; si bit1 = 0 -> tecla O
 81+  80A2 28 12            JR Z, KLREF_O
 82+  80A4 CB 57            BIT 2, A
 83+  80A6 28 12            JR Z, KLREF_I
 84+  80A8
 85+  80A8 06 FD            LD B, $FD            ; otra fila para F
 86+  80AA ED 78            IN A, (C)
 87+  80AC CB 5F            BIT 3, A             ; si bit3 = 0 -> tecla F
 88+  80AE 28 2E            JR Z, KLREF_F
 89+  80B0
 90+  80B0 18 E6            JR KLREF_BUCLE_J2       ; repetir hasta detectar una tecla
 91+  80B2
 92+  80B2              KLREF_P:
 93+  80B2 16 50            LD D, 'P'   ; devuelve en D el carácter 'P' si se detectó esa tecla
 94+  80B4 18 06            JR KLREF_RELEASE_IOP
 95+  80B6
 96+  80B6              KLREF_O:
 97+  80B6 16 4F            LD D, 'O'   ; devuelve en D el carácter 'O' si se detectó esa tecla
 98+  80B8 18 02            JR KLREF_RELEASE_IOP
 99+  80BA
100+  80BA              KLREF_I:
101+  80BA 16 49            LD D, 'I'   ; devuelve en D el carácter 'I' si se detectó esa tecla
102+  80BC
103+  80BC              ; KLREF_RELEASE_IOP
104+  80BC              ; - Espera a que la tecla P u O no este pulsada antes de retornar (anti-rebotes/simple debounce)
105+  80BC              KLREF_RELEASE_IOP:
106+  80BC 06 DF            LD B, $DF
107+  80BE ED 78            IN A, (C)
108+  80C0 E6 1F            AND $1F
109+  80C2 FE 1F            CP $1F
110+  80C4 20 F6            JR NZ, KLREF_RELEASE_IOP
111+  80C6 F1               POP AF
112+  80C7 C9               RET
113+  80C8
114+  80C8              KLREF_E:
115+  80C8 16 45            LD D, 'E'            ; devuelve 'E' en D
116+  80CA 18 06            JR KLREF_RELEASE_QWE
117+  80CC
118+  80CC              KLREF_W:
119+  80CC 16 57            LD D, 'W'            ; devuelve 'W' en D
120+  80CE 18 02            JR KLREF_RELEASE_QWE
121+  80D0
122+  80D0              KLREF_Q:
123+  80D0 16 51            LD D, 'Q'            ; devuelve 'Q' en D
124+  80D2
125+  80D2              ; KLREF_RELEASE_QWE
126+  80D2              ; - Espera a que la tecla Q o W no este pulsada antes de retornar (anti-rebotes/simple debounce)
127+  80D2              KLREF_RELEASE_QWE:
128+  80D2 06 FB            LD B, $FB
129+  80D4 ED 78            IN A, (C)
130+  80D6 E6 1F            AND $1F
131+  80D8 FE 1F            CP $1F
132+  80DA 20 F6            JR NZ, KLREF_RELEASE_QWE
133+  80DC F1               POP AF
134+  80DD C9               RET
135+  80DE
136+  80DE              KLREF_F:
137+  80DE 16 46            LD D, 'F'            ; devuelve 'F' en D
138+  80E0
139+  80E0              ; KLREF_RELEASE_F
140+  80E0              ; - Espera a la liberación de la tecla F
141+  80E0              KLREF_RELEASE_F:
142+  80E0 06 FD            LD B, $FD
143+  80E2 ED 78            IN A, (C)
144+  80E4 E6 1F            AND $1F
145+  80E6 FE 1F            CP $1F
146+  80E8 20 F6            JR NZ, KLREF_RELEASE_F
147+  80EA F1               POP AF
148+  80EB C9               RET
# file closed: C:\Users\Manuel Cencerrado\OneDrive - UFV\Escritorio\UFV\ING.INF\2\AOC\Practicas\Ejercicios\practicaConecta4\keyboard.asm
 15   80EC                  INCLUDE "printat.asm"        ; Rutina de impresión en pantalla
# file opened: C:\Users\Manuel Cencerrado\OneDrive - UFV\Escritorio\UFV\ING.INF\2\AOC\Practicas\Ejercicios\practicaConecta4\printat.asm
  1+  80EC              ; -------------------------------
  2+  80EC              ; ZX Spectrum Text print library
  3+  80EC              ; Daniel León - AOC - UFV 2020
  4+  80EC              ; -------------------------------
  5+  80EC
  6+  80EC
  7+  80EC              ; ----------------------------------------------------------------------------------------
  8+  80EC              ; PRINTAT - Print a string in a position and attributes as per registers:
  9+  80EC              ;		IN	A	: Bit 7=1 For Flash / Bit 6=1 For Brigh / Bit 5,4,3 for Paper / Bit 2,1,0 for Ink
 10+  80EC              ;		IN	B	: Row 0..23
 11+  80EC              ;		IN	C	: Column 0..31
 12+  80EC              ;		IN	IX	: Address of text (Text must end in a 0)
 13+  80EC              ; ----------------------------------------------------------------------------------------
 14+  80EC CD FB 80     PRINTAT:	CALL PREP_PRT				; Update Attribute var &Screen & Attributes pointers
 15+  80EF              ; ----------------------------------------------------------------------------------------
 16+  80EF              ;		VVV Do not move PRINTSTR below as PRINTAT continues into PRINTSTR routine
 17+  80EF              ; ----------------------------------------------------------------------------------------
 18+  80EF              ; PRINTSTR - Prints String - IX Points to the String start
 19+  80EF              ; ----------------------------------------------------------------------------------------
 20+  80EF DD 7E 00     PRINTSTR:   LD A,(IX)					; A Contains first char to print
 21+  80F2 B7           			OR A						; check for end of string (0)
 22+  80F3 C8           			RET Z						; Finish printing if 0
 23+  80F4 CD 29 81     			CALL PRINTCHNUM
 24+  80F7 DD 23        			INC IX						; Move to next char in string
 25+  80F9 18 F4        			JR PRINTSTR					; Start over printing sequence
 26+  80FB              ; ----------------------------------------------------------------------------------------
 27+  80FB
 28+  80FB
 29+  80FB              ;-----------------------------------------------------------------------------------------
 30+  80FB              ; PREP_PRT - Updates Print_Attr, SCR & ATTR Vars
 31+  80FB              ;-----------------------------------------------------------------------------------------
 32+  80FB 32 6F 81     PREP_PRT:	LD (PRINT_ATTR),A			; Set Attribute
 33+  80FE CD 04 81     PREP_PRT_2:	CALL CRtoSCREEN
 34+  8101 C3 16 81     			JP CRtoATTR
 35+  8104              ;-----------------------------------------------------------------------------------------
 36+  8104
 37+  8104              ;-----------------------------------------------------------------------------------------
 38+  8104              ; CRtoSCREEN - Converts a scr char coord into a SCREEN Address   b,c = y,x positions
 39+  8104              ;	IN  - B=Row, C=Column
 40+  8104              ;	OUT - HL=Address in screen also stored in (SCR_CUR_PTR)
 41+  8104              ;	Conversion:
 42+  8104              ;			Row FFfff   Column CCCCC
 43+  8104              ;			HL=%010FF000 fffCCCCC
 44+  8104              ;-----------------------------------------------------------------------------------------
 45+  8104              CRtoSCREEN:
 46+  8104 78           			LD A,B						; %___FFfff
 47+  8105 F6 40        			OR #40						; %010FFfff
 48+  8107 E6 F8        			AND #F8						; %010FF000
 49+  8109 67           			LD H,A
 50+  810A
 51+  810A 78           			LD A,B						; %___FFfff
 52+  810B E6 07        			AND #7						; %00000fff
 53+  810D 0F           			RRCA						; %f00000ff
 54+  810E 0F           			RRCA						; %ff00000f
 55+  810F 0F           			RRCA						; %fff00000
 56+  8110 B1           			OR C						; %fffCCCCC
 57+  8111 6F           			LD L,A
 58+  8112 22 6B 81                 LD (SCR_CUR_PTR),HL			; Update Variable
 59+  8115 C9                       RET
 60+  8116              ; ----------------------------------------------------------------------------------------
 61+  8116
 62+  8116
 63+  8116
 64+  8116              ;-----------------------------------------------------------------------------------------
 65+  8116              ; CRtoATTR - Converts a screen char coord  into a ATTR Address  b,c = y,x positions
 66+  8116              ;	IN  - B=Row, C=Column
 67+  8116              ;	OUT - HL=Address in screen also stored in (SCR_ATTR_PTR)
 68+  8116              ;	Conversion:
 69+  8116              ;			Row FFfff   Column CCCCC
 70+  8116              ;			HL=%010110FF fffCCCCC
 71+  8116              ;-----------------------------------------------------------------------------------------
 72+  8116              CRtoATTR:
 73+  8116 78           			LD A,B						; %___FFfff
 74+  8117 0F           			RRCA						; %f000FFff
 75+  8118 0F           			RRCA						; %ff000FFf
 76+  8119 0F           			RRCA						; %fff000FF
 77+  811A 6F           			LD L,A
 78+  811B E6 03        			AND 3						; %000000FF	value of FF can be only 00,01,10
 79+  811D F6 58        			OR #58						; %010110FF value will be #58, #59 or #5A
 80+  811F 67           			LD H,A
 81+  8120
 82+  8120 7D           			LD A,L						; %fff000FF
 83+  8121 E6 E0        			AND #E0						; %fff00000
 84+  8123 B1           			OR C						; %fffCCCCC
 85+  8124 6F           			LD L,A
 86+  8125
 87+  8125 22 6D 81                 LD (SCR_ATTR_PTR),HL		; Update Variable
 88+  8128 C9                       RET
 89+  8129              ; ----------------------------------------------------------------------------------------
 90+  8129
 91+  8129
 92+  8129
 93+  8129              ; ----------------------------------------------------------------------------------------
 94+  8129              ; PRINTCHNUM - Prints Char Number N (stored in A)
 95+  8129              ;-----------------------------------------------------------------------------------------
 96+  8129              PRINTCHNUM:	;SUB 32						; Adjust Ascii to charset
 97+  8129 26 00        			LD H,0						; Multiply value by 8 to get to right Char in Charset
 98+  812B 6F           			LD L,A
 99+  812C 29           			ADD HL,HL
100+  812D 29           			ADD HL,HL
101+  812E 29           			ADD HL,HL
102+  812F 11 70 80     			LD DE, CHARSET-(8*32)		; Optimize in compile time (instead of sub 32)
103+  8132 19           			ADD HL,DE
104+  8133 EB           			EX  DE,HL					;Value in DE
105+  8134              			; Continues to printchar below
106+  8134              ; ----------------------------------------------------------------------------------------
107+  8134
108+  8134
109+  8134              ; ----------------------------------------------------------------------------------------
110+  8134              ; PRINTCHAR - Prints Char  (DE points to the char. Uses HL as last Cur Pointer)
111+  8134              ; ----------------------------------------------------------------------------------------
112+  8134              PRINTCHAR:
113+  8134 06 08        			LD B,8						; 8 Lines per char
114+  8136 2A 6B 81                 LD HL, (SCR_CUR_PTR)		; Load Cursor Pointer y,x
115+  8139
116+  8139 1A           BYTEPCHAR:	LD A,(DE)					; Get Char to be printed, first line
117+  813A 77           			LD (HL),A					; Move to Printing location
118+  813B 24                       INC H						; inc H so next line in char (ZX Spectrum Screen RAM)
119+  813C 13                       INC DE 						; next line to be printed
120+  813D 10 FA                    DJNZ BYTEPCHAR				; Repeat 8 lines
121+  813F 3A 6F 81                 LD A,(PRINT_ATTR) 			; Load Attributes to print char with
122+  8142 2A 6D 81                 LD HL, (SCR_ATTR_PTR)
123+  8145 77                       LD (HL),A
124+  8146 21 6D 81                 LD HL, SCR_ATTR_PTR			; Get pointer to ATTR
125+  8149 34                       INC (HL)					; Move Attribute cursor to next char
126+  814A 21 6B 81     			LD HL, SCR_CUR_PTR
127+  814D 34           			INC (HL)					; update Cursor pointer to next position
128+  814E C9                       RET
129+  814F              ; ----------------------------------------------------------------------------------------
130+  814F
131+  814F
132+  814F
133+  814F              ; ----------------------------------------------------------------------------------------
134+  814F              ; INK2PAPER - moves ink of attribute stored in (PRINT_ATTR) to paper and sets ink to 0
135+  814F              ; 				Sets bright 1 and flash 0
136+  814F              ; ----------------------------------------------------------------------------------------
137+  814F 3A 6F 81     INK2PAPER:	LD A, (PRINT_ATTR)		    ; Get storedAttribute
138+  8152 E6 07                    AND 7						; get Attr INK in A
139+  8154 07           			RLCA
140+  8155 07           			RLCA
141+  8156 07           			RLCA						; move Ink to Paper
142+  8157 F6 40        			OR 64						; ink 0 bright 1
143+  8159 32 6F 81     			LD (PRINT_ATTR),A		    ; Get storedAttribute
144+  815C C9           			RET
145+  815D              ; ----------------------------------------------------------------------------------------
146+  815D
147+  815D
148+  815D
149+  815D
150+  815D 21 00 40     CLEARSCR:	LD HL,$4000					; Erases screen by writing 0 to all pixels and attributes
151+  8160 11 01 40     			LD DE,$4001
152+  8163 01 FF 1A     			LD BC,6911
153+  8166 36 00        			LD (HL),0
154+  8168 ED B0        			LDIR
155+  816A C9           			RET
156+  816B
157+  816B
158+  816B              SCR_CUR_PTR
158+  816B 00 00          	db $00, $00				; Cursor Pointer in Screen (2 bytes) (HL)
159+  816D 00 00        SCR_ATTR_PTR: 	db $00, $00				; Attr Pointer in Screen (2 bytes) (HL)
160+  816F 00           PRINT_ATTR:		db $00					; Attribute used by printchar routine (1 byte)
161+  8170
162+  8170              CHARSET: incbin "charset.bin"			; Charset used
163+  8470
# file closed: C:\Users\Manuel Cencerrado\OneDrive - UFV\Escritorio\UFV\ING.INF\2\AOC\Practicas\Ejercicios\practicaConecta4\printat.asm
 16   8470                  INCLUDE "graphics_basic.asm" ; Rutinas gráficas básicas
# file opened: C:\Users\Manuel Cencerrado\OneDrive - UFV\Escritorio\UFV\ING.INF\2\AOC\Practicas\Ejercicios\practicaConecta4\graphics_basic.asm
  1+  8470              ; STRINGS PARA IMPRESION
  2+  8470
  3+  8470 20 20 20 20  STRING_FILA_VACIA_B: DB "                        ", 0    ; fila vacía (ancho para portada)
  3+  8474 20 20 20 20
  3+  8478 20 20 20 20
  3+  847C 20 20 20 20
  3+  8480 20 20 20 20
  3+  8484 20 20 20 20
  3+  8488 00
  4+  8489 20 42 69 65  STRING_BIENVENIDA: DB " Bienvenido a Conecta 4 ", 0    ; texto principal de bienvenida
  4+  848D 6E 76 65 6E
  4+  8491 69 64 6F 20
  4+  8495 61 20 43 6F
  4+  8499 6E 65 63 74
  4+  849D 61 20 34 20
  4+  84A1 00
  5+  84A2 20 51 75 69  STRING_JUGAR: DB " Quieres jugar? S/N:   ", 0          ; pregunta para iniciar partida
  5+  84A6 65 72 65 73
  5+  84AA 20 6A 75 67
  5+  84AE 61 72 3F 20
  5+  84B2 53 2F 4E 3A
  5+  84B6 20 20 20 00
  6+  84BA 20 20 20 20  STRING_FILA_VACIA_J: DB "                       ", 0   ; otra fila vacía para espaciado
  6+  84BE 20 20 20 20
  6+  84C2 20 20 20 20
  6+  84C6 20 20 20 20
  6+  84CA 20 20 20 20
  6+  84CE 20 20 20 00
  7+  84D2 20 20 20 20  STRING_FILA_VACIA_A: DB "            ", 0           ; fila vacía (alineación en pantalla)
  7+  84D6 20 20 20 20
  7+  84DA 20 20 20 20
  7+  84DE 00
  8+  84DF 20 20 41 44  STRING_ADIOS: DB "  ADIOS!!!! ", 0                 ; mensaje de despedida
  8+  84E3 49 4F 53 21
  8+  84E7 21 21 21 20
  8+  84EB 00
  9+  84EC 20 48 41 4E  STRING_EMPATE: DB " HAN EMPATADO ", 0     ; mensaje cuando termina la partida
  9+  84F0 20 45 4D 50
  9+  84F4 41 54 41 44
  9+  84F8 4F 20 00
 10+  84FB 20 20 20 20  STRING_FILA_VACIA_E: DB "              ", 0
 10+  84FF 20 20 20 20
 10+  8503 20 20 20 20
 10+  8507 20 20 00
 11+  850A 20 51 55 49  STRING_OTRA: DB " QUIEREN JUGAR OTRA VEZ? S/N:   ", 0 ; preguntar por otra partida
 11+  850E 45 52 45 4E
 11+  8512 20 4A 55 47
 11+  8516 41 52 20 4F
 11+  851A 54 52 41 20
 11+  851E 56 45 5A 3F
 11+  8522 20 53 2F 4E
 11+  8526 3A 20 20 20
 11+  852A 00
 12+  852B 51 3D 49 5A  STRING_CONTROLES_J1: DB "Q=IZQ, W=DER", 0
 12+  852F 51 2C 20 57
 12+  8533 3D 44 45 52
 12+  8537 00
 13+  8538 49 3D 49 5A  STRING_CONTROLES_J2: DB "I=IZQ, O=DER", 0
 13+  853C 51 2C 20 4F
 13+  8540 3D 44 45 52
 13+  8544 00
 14+  8545 42 41 4A 41  STRING_BAJAR: DB "BAJAR= / ", 0
 14+  8549 52 3D 20 2F
 14+  854D 20 00
 15+  854F 45 00        STRING_BJ1: DB "E", 0
 16+  8551 50 00        STRING_BJ2: DB "P", 0
 17+  8553 20 48 41 20  MENSAJE_VICTORIA: DB " HA GANADO EL JUGADOR ", 0
 17+  8557 47 41 4E 41
 17+  855B 44 4F 20 45
 17+  855F 4C 20 4A 55
 17+  8563 47 41 44 4F
 17+  8567 52 20 00
 18+  856A 20 20 20 20  NOMBRE_GANADOR: DB "           "
 18+  856E 20 20 20 20
 18+  8572 20 20 20
 19+  8575 20 20 20 52                  DB "   ROJO    "
 19+  8579 4F 4A 4F 20
 19+  857D 20 20 20
 20+  8580 20 20 4D 41                  DB "  MAGENTA  "
 20+  8584 47 45 4E 54
 20+  8588 41 20 20
 21+  858B 20 20 20 56                  DB "   VERDE   "
 21+  858F 45 52 44 45
 21+  8593 20 20 20
 22+  8596 20 20 43 45                  DB "  CELESTE  "
 22+  859A 4C 45 53 54
 22+  859E 45 20 20
 23+  85A1 20 41 4D 41                  DB " AMARILLO  "
 23+  85A5 52 49 4C 4C
 23+  85A9 4F 20 20
 24+  85AC 20 20 42 4C                  DB "  BLANCO   "
 24+  85B0 41 4E 43 4F
 24+  85B4 20 20 20
 25+  85B7 00 00        CHAR_CARACTER: DB 0, 0                               ; buffer de 1 byte para el caracter pulsado
 26+  85B9
 27+  85B9              ; PANTALLA DE INICIO
 28+  85B9              PANTALLA_BIENVENIDA: INCBIN "connect4screen.SCR" ; Pantalla inicial (portada) del juego
 29+  A0B9              PANTALLA_JUEGO: INCBIN "connect4gameScreen.scr" ; Pantalla del tablero en la partida
 30+  BBB9
 31+  BBB9              GB_BIENVENIDA:
 32+  BBB9                  ; Guardamos registros usados antes de manipular la pantalla
 33+  BBB9 D5               PUSH DE
 33+  BBBA E5             PUSH HL
 33+  BBBB C5             PUSH BC
 33+  BBBC F5             PUSH AF
 34+  BBBD
 35+  BBBD                  ; Copia la imagen BIN a la VRAM/direccion de pantalla
 36+  BBBD 11 00 40         LD DE, $4000                 ; dirección destino en memoria de pantalla (ejemplo)
 37+  BBC0 21 B9 85         LD HL, PANTALLA_BIENVENIDA  ; dirección fuente (bin incluido)
 38+  BBC3 01 00 1B         LD BC, $5B00 - $4000        ; longitud en bytes a copiar
 39+  BBC6              BIENVENIDA_BUCLE:
 40+  BBC6 ED B0            LDIR ; copia BC bytes desde (HL) a (DE) incrementando HL/DE
 41+  BBC8
 42+  BBC8              ; PRINT_BIENVENIDA: imprime texto y mensajes sobre la portada cargada
 43+  BBC8              ; Convención usada por PRINTAT (por contrato):
 44+  BBC8              ;   B = fila, C = columna, IX = puntero a cadena, A = atributo/color (opcional)
 45+  BBC8              PRINT_BIENVENIDA: ; IMPRIME EL MENSAJE DE BIENVENIDA
 46+  BBC8 06 01            LD B, 1
 47+  BBCA 0E 04            LD C, 4
 48+  BBCC DD 21 70 84      LD IX, STRING_FILA_VACIA_B
 49+  BBD0 CD EC 80         CALL PRINTAT
 50+  BBD3 06 03            LD B, 3
 51+  BBD5 DD 21 70 84      LD IX, STRING_FILA_VACIA_B
 52+  BBD9 CD EC 80         CALL PRINTAT
 53+  BBDC 06 02            LD B, 2
 54+  BBDE 3E 02            LD A, COLOR_TEXTO_ROJO         ; atributo de color para la línea central
 55+  BBE0 DD 21 89 84      LD IX, STRING_BIENVENIDA
 56+  BBE4 CD EC 80         CALL PRINTAT
 57+  BBE7
 58+  BBE7                  ; Espaciado y pregunta para jugar
 59+  BBE7 06 14            LD B, 20
 60+  BBE9 0E 09            LD C, 9
 61+  BBEB DD 21 BA 84      LD IX, STRING_FILA_VACIA_J
 62+  BBEF CD EC 80         CALL PRINTAT
 63+  BBF2 06 16            LD B, 22
 64+  BBF4 DD 21 BA 84      LD IX, STRING_FILA_VACIA_J
 65+  BBF8 CD EC 80         CALL PRINTAT
 66+  BBFB 06 15            LD B, 21
 67+  BBFD 3E 06            LD A, COLOR_TEXTO_AMARILLO     ; color para la pregunta
 68+  BBFF DD 21 A2 84      LD IX, STRING_JUGAR ; IMPRIME EL MENSAJE PREGUNTANDO SI SE QUIERE JUGAR
 69+  BC03 CD EC 80         CALL PRINTAT
 70+  BC06                  ; Preparamos el atributo para el blinker (parpadeo)
 71+  BC06 3E B0            LD A, BLINK + 8*COLOR_TEXTO_AMARILLO ; BLINK combinado con un valor de color
 72+  BC08
 73+  BC08              GB_PRUEBA: ; Pinta en pantalla el atributo de parpadeo en la posición indicada
 74+  BC08 06 15            LD B, 21
 75+  BC0A 0E 1E            LD C, 30
 76+  BC0C 21 BE 5A         LD HL, $5800 + 21*NUM_COLS + 30  ; dirección de la celda (fila*NUM_COLS + col) en buffer de pantalla
 77+  BC0F 77               LD (HL), A                        ; escribe el atributo (parpadeo) directamente en VRAM
 78+  BC10 F1               POP AF
 78+  BC11 C1             POP BC
 78+  BC12 E1             POP HL
 78+  BC13 D1             POP DE    ; restaura registros y sale
 79+  BC14
 80+  BC14 C9               RET
 81+  BC15
 82+  BC15              GB_BLINKER_JUGAR:
 83+  BC15 06 15            LD B, 21
 84+  BC17 0E 1E            LD C, 30
 85+  BC19 21 BE 5A         LD HL, $5800 + 21*NUM_COLS + 30  ; dirección de la celda (fila*NUM_COLS + col) en buffer de pantalla
 86+  BC1C 77               LD (HL), A
 87+  BC1D C9               RET
 88+  BC1E
 89+  BC1E              GB_PRINT_CHAR_SON: ; Imprime el caracter que escribió el usuario en la misma posición del blinker
 90+  BC1E 06 15            LD B, 21
 91+  BC20 0E 1E            LD C, 30
 92+  BC22 DD 21 B7 85      LD IX, CHAR_CARACTER
 93+  BC26 CD EC 80         CALL PRINTAT
 94+  BC29
 95+  BC29 C9               RET
 96+  BC2A
 97+  BC2A              GB_ADIOS: ; Muestra la pantalla de despedida 'ADIOS' (uso similar a bienvenida)
 98+  BC2A CD 26 BD         CALL PTLLA_NEGRA    ; limpia la pantalla antes de escribir
 99+  BC2D              PRINT_ADIOS:
100+  BC2D 06 0A            LD B, 10
101+  BC2F 0E 0A            LD C, 10
102+  BC31 3E 10            LD A, 8*COLOR_TEXTO_ROJO    ; atributo/color para el texto de adiós
103+  BC33 DD 21 D2 84      LD IX, STRING_FILA_VACIA_A
104+  BC37 CD EC 80         CALL PRINTAT
105+  BC3A 06 0C            LD B, 12
106+  BC3C 3E 10            LD A, 8*COLOR_TEXTO_ROJO
107+  BC3E DD 21 D2 84      LD IX, STRING_FILA_VACIA_A
108+  BC42 CD EC 80         CALL PRINTAT
109+  BC45 06 0B            LD B, 11
110+  BC47 3E 10            LD A, 8*COLOR_TEXTO_ROJO
111+  BC49 DD 21 DF 84      LD IX, STRING_ADIOS
112+  BC4D CD EC 80         CALL PRINTAT
113+  BC50
114+  BC50 C9               RET
115+  BC51
116+  BC51              ; GB_FIN_NEXT
117+  BC51              ; Imprime la pantalla y mensajes de fin de la partida, incluyendo el ganador de la partida
118+  BC51              ; y si se desea jugar nuevamente o no
119+  BC51              GB_FIN_NEXT:
120+  BC51 D5               PUSH DE
120+  BC52 E5             PUSH HL
120+  BC53 C5             PUSH BC
120+  BC54 F5             PUSH AF
121+  BC55 CD F7 BC         CALL PRINT_GANADOR
122+  BC58 F1               POP AF
122+  BC59 C1             POP BC
122+  BC5A E1             POP HL
122+  BC5B D1             POP DE
123+  BC5C C9               RET
124+  BC5D
125+  BC5D              ; GB_EMPATE
126+  BC5D              ; Imprime el mensaje informando que la partida ha finalizado en un empate, ya que el tablero
127+  BC5D              ; se llenó sin que ningún jugador consiguiera 4 en raya
128+  BC5D              GB_EMPATE:
129+  BC5D D5               PUSH DE
129+  BC5E E5             PUSH HL
129+  BC5F C5             PUSH BC
129+  BC60 F5             PUSH AF
130+  BC61 DD 21 FB 84      LD IX, STRING_FILA_VACIA_E
131+  BC65 06 0B            LD B, 11
132+  BC67 0E 08            LD C, 8
133+  BC69 3E 02            LD A, COLOR_TEXTO_ROJO
134+  BC6B CD EC 80         CALL PRINTAT
135+  BC6E 06 0D            LD B, 13
136+  BC70 CD EC 80         CALL PRINTAT
137+  BC73 06 0C            LD B, 12
138+  BC75 DD 21 EC 84      LD IX, STRING_EMPATE
139+  BC79 CD EC 80         CALL PRINTAT
140+  BC7C F1               POP AF
140+  BC7D C1             POP BC
140+  BC7E E1             POP HL
140+  BC7F D1             POP DE
141+  BC80 C9               RET
142+  BC81
143+  BC81              PRINT_FIN:
144+  BC81 06 0F            LD B, 15
145+  BC83 0E 03            LD C, 3
146+  BC85 3E 10            LD A, 8*COLOR_TEXTO_ROJO
147+  BC87 DD 21 EC 84      LD IX, STRING_EMPATE
148+  BC8B CD EC 80         CALL PRINTAT
149+  BC8E
150+  BC8E              ; Impresion del mensaje ofreciendo jugar otra partida
151+  BC8E              PRINT_OTRA:
152+  BC8E 06 15            LD B, 21
153+  BC90 0E 00            LD C, 0
154+  BC92 3E 10            LD A, 8*COLOR_TEXTO_ROJO
155+  BC94 DD 21 0A 85      LD IX, STRING_OTRA
156+  BC98 CD EC 80         CALL PRINTAT
157+  BC9B 3E 90            LD A, BLINK + 8*COLOR_TEXTO_ROJO
158+  BC9D CD 15 BC         CALL GB_BLINKER_JUGAR
159+  BCA0 C9               RET
160+  BCA1
161+  BCA1              ; GB_PTLLA_INICIO_DE_JUEGO
162+  BCA1              ; Imprime la pantalla inicial del tablero con la cuadrícula de 6x7 y los círculos (de momento no visibles)
163+  BCA1              ; por encima del tablero.
164+  BCA1              GB_PTLLA_INICIO_DE_JUEGO:
165+  BCA1                  ; Inicializa la pantalla del juego (limpia y carga la plantilla de juego)
166+  BCA1 CD 26 BD         CALL PTLLA_NEGRA
167+  BCA4                  ; Guardamos registros usados antes de manipular la pantalla
168+  BCA4 D5               PUSH DE
168+  BCA5 E5             PUSH HL
168+  BCA6 C5             PUSH BC
168+  BCA7 F5             PUSH AF
169+  BCA8
170+  BCA8                  ; Copia la imagen BIN a la VRAM/direccion de pantalla
171+  BCA8 11 00 40         LD DE, $4000                 ; dirección destino en memoria de pantalla (ejemplo)
172+  BCAB 21 B9 A0         LD HL, PANTALLA_JUEGO  ; dirección fuente (bin incluido)
173+  BCAE 01 00 1B         LD BC, $5B00 - $4000        ; longitud en bytes a copiar
174+  BCB1              PTLLA_JUEGO_BUCLE:
175+  BCB1 ED B0            LDIR ; copia BC bytes desde (HL) a (DE) incrementando HL/DE
176+  BCB3
177+  BCB3 F1               POP AF
177+  BCB4 C1             POP BC
177+  BCB5 E1             POP HL
177+  BCB6 D1             POP DE
178+  BCB7
179+  BCB7              ; Rutina que imprime los controles para cada jugador, en su respectivo color
180+  BCB7              PRINT_CONTROLES:
181+  BCB7 06 00            LD B, 0
182+  BCB9 0E 01            LD C, 1
183+  BCBB 3E 05            LD A, COLOR_JUGADOR1    ; atributo/color para el texto de adiós
184+  BCBD DD 21 2B 85      LD IX, STRING_CONTROLES_J1
185+  BCC1 CD EC 80         CALL PRINTAT
186+  BCC4 0E 14            LD C, 20
187+  BCC6 3E 03            LD A, COLOR_JUGADOR2
188+  BCC8 DD 21 38 85      LD IX, STRING_CONTROLES_J2
189+  BCCC CD EC 80         CALL PRINTAT
190+  BCCF 06 17            LD B, 23
191+  BCD1 0E 0A            LD C, 10
192+  BCD3 3E 07            LD A, COLOR_BLANCO
193+  BCD5 DD 21 45 85      LD IX, STRING_BAJAR
194+  BCD9 CD EC 80         CALL PRINTAT
195+  BCDC 06 17            LD B, 23
196+  BCDE 0E 10            LD C, 16
197+  BCE0 3E 05            LD A, COLOR_JUGADOR1
198+  BCE2 DD 21 4F 85      LD IX, STRING_BJ1
199+  BCE6 CD EC 80         CALL PRINTAT
200+  BCE9 06 17            LD B, 23
201+  BCEB 0E 12            LD C, 18
202+  BCED 3E 03            LD A, COLOR_JUGADOR2
203+  BCEF DD 21 51 85      LD IX, STRING_BJ2
204+  BCF3 CD EC 80         CALL PRINTAT
205+  BCF6 C9               RET
206+  BCF7
207+  BCF7              ; Impresion del ganador, incluye mensaje general de victoria + el nombre del jugador ganador en su color.
208+  BCF7              PRINT_GANADOR:
209+  BCF7 CD 3C BD         CALL GB_PRINT_FONDO_GANADOR
210+  BCFA 06 0B            LD B, 11
211+  BCFC 0E 04            LD C, 4
212+  BCFE 3E 07            LD A, COLOR_BLANCO    ; atributo/color para el texto de adiós
213+  BD00 DD 21 53 85      LD IX, MENSAJE_VICTORIA
214+  BD04 CD EC 80         CALL PRINTAT
215+  BD07 06 0C            LD B, 12
216+  BD09 0E 0A            LD C, 10
217+  BD0B C5               PUSH BC
218+  BD0C DD 21 6A 85      LD IX, NOMBRE_GANADOR
219+  BD10 3A 0E 80         LD A, (GANADOR)
219+  BD13 F5             PUSH AF
220+  BD14 47               LD B, A
220+  BD15 05             DEC B
221+  BD16 11 0B 00         LD DE, 11
222+  BD19              CONSEGUIR_GANADOR:
223+  BD19 DD 19            ADD IX, DE
224+  BD1B 10 FC            DJNZ CONSEGUIR_GANADOR
225+  BD1D
226+  BD1D F1               POP AF
226+  BD1E C1             POP BC
227+  BD1F CD EC 80         CALL PRINTAT
228+  BD22 CD 8E BC         CALL PRINT_OTRA ; Imprime el mensaje ofreciendo jugar otra partida
229+  BD25 C9               RET
230+  BD26
231+  BD26              PTLLA_NEGRA:
232+  BD26                  ; Llena la pantalla con ceros (pantalla en negro)
233+  BD26 C5               PUSH BC
233+  BD27 D5             PUSH DE
233+  BD28 E5             PUSH HL
233+  BD29 F5             PUSH AF
234+  BD2A
235+  BD2A 21 00 58         LD   HL,$5800
236+  BD2D 11 01 58         LD   DE,$5801
237+  BD30 36 00            LD   (HL),0
238+  BD32 01 FF 02         LD   BC,768-1
239+  BD35 ED B0            LDIR    ; copia 768 bytes-1 para limpiar buffer de pantalla
240+  BD37
241+  BD37 F1               POP AF
241+  BD38 E1             POP HL
241+  BD39 D1             POP DE
241+  BD3A C1             POP BC
242+  BD3B C9               RET
243+  BD3C              GB_PRINT_FONDO_GANADOR:
244+  BD3C E5               PUSH HL
244+  BD3D C5             PUSH BC
244+  BD3E F5             PUSH AF
245+  BD3F 21 00 58         LD HL, $5800
246+  BD42 06 3F            LD B, COLOR_BLANCO_FONDO_GANADOR
247+  BD44              BUCLE_PTLLA:
248+  BD44 70               LD (HL), B
249+  BD45 23               INC HL
250+  BD46 7C               LD A, H
251+  BD47 FE 5B            CP $5B
252+  BD49 20 F9            JR NZ, BUCLE_PTLLA
253+  BD4B F1               POP AF
253+  BD4C C1             POP BC
253+  BD4D E1             POP HL
254+  BD4E C9               RET
# file closed: C:\Users\Manuel Cencerrado\OneDrive - UFV\Escritorio\UFV\ING.INF\2\AOC\Practicas\Ejercicios\practicaConecta4\graphics_basic.asm
 17   BD4F                  INCLUDE "graphics_core.asm"  ; Rutinas gráficas avanzadas
# file opened: C:\Users\Manuel Cencerrado\OneDrive - UFV\Escritorio\UFV\ING.INF\2\AOC\Practicas\Ejercicios\practicaConecta4\graphics_core.asm
  1+  BD4F              ; GC_COLOR_JUGADOR_ACTUAL
  2+  BD4F              ;  - Pone el atributo/color del jugador actual en un bloque 3x3
  3+  BD4F              ;  - Convenios:
  4+  BD4F              ;      D contiene el color base del jugador (ej. 2 o 6)
  5+  BD4F              ;      BLINK es el bit de parpadeo; se añade para el efecto visual
  6+  BD4F              ;      INC_HL_3X3 escribe/avanza sobre un bloque 3x3 usando (HL)
  7+  BD4F              ;  - Efecto: carga A con D|BLINK y aplica ese atributo en la celda base $5845 (3 llamadas -> 3 filas del bloque)
  8+  BD4F              GC_COLOR_JUGADOR_ACTUAL:
  9+  BD4F 3A 0C 80         LD A, (JUGADOR_ACTUAL)
 10+  BD52 21 00 00         LD HL, $00
 11+  BD55 FE 02            CP 2
 11+  BD57 CC 63 BD       CALL Z, SET_HL_J2
 12+  BD5A 3A 0D 80         LD A, (COLOR_JUGADOR_ACTUAL)
 13+  BD5D C6 80            ADD BLINK
 14+  BD5F CD 67 BD         CALL GC_COLOR_CIRCLE
 15+  BD62 C9               RET
 16+  BD63              ; El jugador 2 empieza en la columna 6 (Fila = 0, Columna = 6)
 17+  BD63              SET_HL_J2
 18+  BD63 21 06 00         LD HL, $06
 19+  BD66 C9               RET
 20+  BD67
 21+  BD67              ; RECIBE UNA DIRECCION HL DONDE H = FILA DEL TABLERO, L = COLUMNA DEL TABLERO Y COLOREA TODO EL CIRCULO,
 22+  BD67              ; OJO, EN A RECIBE UNICAMENTE EL COLOR DEL INK A PINTAR, EL PAPER Y EL BRIGHT LO DEBE RESPETAR
 23+  BD67              GC_COLOR_CIRCLE:
 24+  BD67 E5               PUSH HL
 24+  BD68 F5             PUSH AF
 24+  BD69 C5             PUSH BC
 24+  BD6A D5             PUSH DE
 25+  BD6B CD 70 BF         CALL LC_SLOT_POINTER ; HL = DIRECCION DE VIDEORAM DEL PAR FILA COLUMNA
 26+  BD6E 01 1E 00         LD BC, $1E
 27+  BD71 57               LD D, A
 28+  BD72 3E 78            LD A, %01111000
 28+  BD74 A6             AND (HL)
 28+  BD75 82             ADD A, D
 29+  BD76 77               LD (HL), A
 29+  BD77 23             INC HL
 29+  BD78 77             LD (HL), A
 29+  BD79 23             INC HL
 29+  BD7A 77             LD (HL), A
 29+  BD7B 09             ADD HL, BC
 30+  BD7C 77               LD (HL), A
 30+  BD7D 23             INC HL
 30+  BD7E 77             LD (HL), A
 30+  BD7F 23             INC HL
 30+  BD80 77             LD (HL), A
 30+  BD81 09             ADD HL, BC
 31+  BD82 77               LD (HL), A
 31+  BD83 23             INC HL
 31+  BD84 77             LD (HL), A
 31+  BD85 23             INC HL
 31+  BD86 77             LD (HL), A
 31+  BD87 09             ADD HL, BC ; EL CIRCULO HA SIDO COLOREADO POR COMPLETO
 32+  BD88 D1               POP DE
 32+  BD89 C1             POP BC
 32+  BD8A F1             POP AF
 32+  BD8B E1             POP HL
 33+  BD8C
 34+  BD8C C9               RET
 35+  BD8D
 36+  BD8D              ; GC_LEFT
 37+  BD8D              ;  - Borra (pone NEGRO) un bloque 3x3 en la posición actual apuntada por HL,
 38+  BD8D              ;    desplaza HL hacia la izquierda (restando 3) y vuelve a borrar el bloque
 39+  BD8D              ;  - Notas:
 40+  BD8D              ;    ADD HL, $FFFD es equivalente a HL -= 3 (0xFFFD = -3 en aritmética de 16 bits)
 41+  BD8D              ;    Se usan múltiples PUSH/POP para preservar registros y valores temporales
 42+  BD8D              GC_LEFT:
 43+  BD8D F5               PUSH AF
 44+  BD8E 3E 00            LD A, NEGRO
 45+  BD90 CD 67 BD         CALL GC_COLOR_CIRCLE
 46+  BD93 2D               DEC L; HL VALE FILA,COLUMNA+1
 47+  BD94 3A 0D 80         LD A, (COLOR_JUGADOR_ACTUAL)
 48+  BD97 C6 80            ADD BLINK
 49+  BD99 CD 67 BD         CALL GC_COLOR_CIRCLE ; HL VALE FILA, COLUMNA + 1 AL FINALIZAR (RESPECTO A VALOR ORIGINAL)
 50+  BD9C F1               POP AF
 51+  BD9D
 52+  BD9D C9               RET
 53+  BD9E
 54+  BD9E              ; GC_RIGHT
 55+  BD9E              ;  - Simétrico a GC_LEFT: borra el bloque 3x3 actual, desplaza HL a la derecha (+3)
 56+  BD9E              ;    y borra el nuevo bloque. Usado para desplazar un cursor/selección a la derecha.
 57+  BD9E              ;  - ADD HL, 3 mueve la posición 3 bytes adelante (una columna/columna visual de 3)
 58+  BD9E              GC_RIGHT:
 59+  BD9E F5               PUSH AF
 60+  BD9F 3E 00            LD A, NEGRO
 61+  BDA1 CD 67 BD         CALL GC_COLOR_CIRCLE
 62+  BDA4 2C               INC L; HL VALE FILA,COLUMNA+1
 63+  BDA5 3A 0D 80         LD A, (COLOR_JUGADOR_ACTUAL)
 64+  BDA8 C6 80            ADD BLINK
 65+  BDAA CD 67 BD         CALL GC_COLOR_CIRCLE ; HL VALE FILA, COLUMNA + 1 AL FINALIZAR (RESPECTO A VALOR ORIGINAL)
 66+  BDAD F1               POP AF
 67+  BDAE
 68+  BDAE C9               RET
 69+  BDAF
 70+  BDAF              ; GC_ENTER
 71+  BDAF              ;   - Rutina que realiza los procesos gráficos tras pulsar para bajar una ficha en una determinada columna
 72+  BDAF              ;   - La rutina simula la caída de la ficha borrando, pintando, esperando y comprobando si puede volver a bajar.
 73+  BDAF              GC_ENTER:
 74+  BDAF F5               PUSH AF
 75+  BDB0 C5               PUSH BC
 76+  BDB1 D5               PUSH DE
 77+  BDB2
 78+  BDB2              ; SOLTAR_FICHA_BUCLE
 79+  BDB2              ; - Rutina que simula la caída de una ficha en la columna seleccionada
 80+  BDB2              ; - INC H para moverse a la siguiente fila
 81+  BDB2              ; - Se hace una pausa para que se vea el movimiento
 82+  BDB2              SOLTAR_FICHA_BUCLE:
 83+  BDB2                  ; Borrar círculo actual
 84+  BDB2 3E 00            LD A, NEGRO
 85+  BDB4 CD 67 BD         CALL GC_COLOR_CIRCLE
 86+  BDB7                  ; Pintarlo una fila más abajo
 87+  BDB7 24               INC H
 88+  BDB8 3A 0D 80         LD A, (COLOR_JUGADOR_ACTUAL)
 89+  BDBB CD 67 BD         CALL GC_COLOR_CIRCLE
 90+  BDBE                  ; Esperar
 91+  BDBE CD F7 BF         CALL U_ESPERAR
 92+  BDC1
 93+  BDC1                  ; Comprobar si se puede volver a pintar
 94+  BDC1 CD E6 BF         CALL U_CALC_TABLERO_POS      ; Devuelve IX en la posición (H,L) fila, columna actual.
 95+  BDC4                  ; Comprobar si la posición de abajo está libre
 96+  BDC4 DD 7E 00         LD A, (IX)
 97+  BDC7 B7               OR A
 98+  BDC8 20 02            JR NZ, FICHA_LANDED ; Si no es cero, la posición está ocupada y se tiene que bajar la ficha
 99+  BDCA 18 E6            JR SOLTAR_FICHA_BUCLE   ; Si es cero, se sigue bajando la ficha
100+  BDCC
101+  BDCC              ; FICHA_LANDED
102+  BDCC              ; - DEC H devuelve la coordenada a la ultima posicion vacia valida
103+  BDCC              ; - Con LD (IX), A se guarda la ficha del jugador actual en la "memoria del tablero"
104+  BDCC              FICHA_LANDED:
105+  BDCC                  ; Calculate correct TABLERO_ACTUAL position and save piece
106+  BDCC 25               DEC H
107+  BDCD CD E6 BF         CALL U_CALC_TABLERO_POS      ; IX apunta a la posición actual en memoria
108+  BDD0 3A 0C 80         LD A, (JUGADOR_ACTUAL) ; 1 o 2, según el turno.
109+  BDD3 DD 77 00         LD (IX), A ; Guarda que ese espacio está ocupado por el jugador que ha tirado
110+  BDD6
111+  BDD6 D1               POP DE
111+  BDD7 C1             POP BC
111+  BDD8 F1            POP AF
112+  BDD9 C9               RET
# file closed: C:\Users\Manuel Cencerrado\OneDrive - UFV\Escritorio\UFV\ING.INF\2\AOC\Practicas\Ejercicios\practicaConecta4\graphics_core.asm
 18   BDDA                  INCLUDE "logic_flow.asm"     ; Flujo principal del juego
# file opened: C:\Users\Manuel Cencerrado\OneDrive - UFV\Escritorio\UFV\ING.INF\2\AOC\Practicas\Ejercicios\practicaConecta4\logic_flow.asm
  1+  BDDA              ; logic_flow.asm - Rutinas de control de flujo principal del juego
  2+  BDDA
  3+  BDDA
  4+  BDDA
  5+  BDDA              ; LF_INICIALIZACION
  6+  BDDA              ;  - Inicializa el estado lógico y gráfico del juego (por ejemplo, dibuja la fila superior de círculos)
  7+  BDDA              ;  - D = PLAYER2 (jugador inicial por defecto)
  8+  BDDA              ;  - Llama a GC_DRAW_CIRCLES_TOP para preparar la pantalla
  9+  BDDA              LF_INICIALIZACION:
 10+  BDDA F5               PUSH AF
 11+  BDDB 3A 0C 80         LD A, (JUGADOR_ACTUAL)
 12+  BDDE 57               LD D, A
 13+  BDDF F1               POP AF
 14+  BDE0 CD 0A BE         CALL LF_BOARD_RESET
 15+  BDE3 C9               RET
 16+  BDE4
 17+  BDE4              ; LF_SWITCH_JUGADOR
 18+  BDE4              ;  - Cambia el jugador actual (D) entre PLAYER1 y PLAYER2
 19+  BDE4              ;  - Si D = PLAYER2, lo cambia a PLAYER1; si D = PLAYER1, lo cambia a PLAYER2
 20+  BDE4              ;  - Usa saltos condicionales para seleccionar el nuevo valor
 21+  BDE4              LF_SWITCH_JUGADOR:
 22+  BDE4 3A 0C 80         LD A, (JUGADOR_ACTUAL)
 23+  BDE7 FE 02            CP JUGADOR2
 24+  BDE9 28 04            JR Z, SET_P1         ; si era PLAYER2, pasa a PLAYER1
 25+  BDEB FE 01            CP JUGADOR1
 26+  BDED 28 0E            JR Z, SET_P2         ; si era PLAYER1, pasa a PLAYER2
 27+  BDEF              SET_P1:
 28+  BDEF F5               PUSH AF
 29+  BDF0 3E 01            LD A, JUGADOR1
 30+  BDF2 32 0C 80         LD (JUGADOR_ACTUAL), A
 31+  BDF5 3E 05            LD A, COLOR_JUGADOR1
 32+  BDF7 32 0D 80         LD (COLOR_JUGADOR_ACTUAL), A
 33+  BDFA F1               POP AF
 34+  BDFB 18 0C            JR SALIDA
 35+  BDFD              SET_P2:
 36+  BDFD F5               PUSH AF
 37+  BDFE 3E 02            LD A, JUGADOR2
 38+  BE00 32 0C 80         LD (JUGADOR_ACTUAL), A
 39+  BE03 3E 03            LD A, COLOR_JUGADOR2
 40+  BE05 32 0D 80         LD (COLOR_JUGADOR_ACTUAL), A
 41+  BE08 F1               POP AF
 42+  BE09              SALIDA:
 43+  BE09 C9               RET
 44+  BE0A
 45+  BE0A              ; RESETEA LA CONDICION DEL TABLERO ACTUAL A TODO CEROS EN LA VARIABLE.
 46+  BE0A              LF_BOARD_RESET:
 47+  BE0A 06 07            LD B, 7
 48+  BE0C DD 21 19 80      LD IX, TABLERO_ACTUAL
 49+  BE10 AF               XOR A
 50+  BE11              BR_BUCLE_EXTERNO:
 51+  BE11 C5               PUSH BC
 52+  BE12 06 06            LD B, 6
 53+  BE14              BR_BUCLE_INTERNO:
 54+  BE14 DD 77 00         LD (IX), A
 55+  BE17 DD 23            INC IX
 56+  BE19 10 F9            DJNZ BR_BUCLE_INTERNO
 57+  BE1B C1               POP BC
 58+  BE1C DD 23            INC IX
 59+  BE1E 10 F1            DJNZ BR_BUCLE_EXTERNO
 60+  BE20 C9               RET
 61+  BE21
 62+  BE21              ; JUGADA_DESPLAZAMIENTO - Administra desplazamiento tras Q/W
 63+  BE21              LF_JUGADA_DESPLAZAMIENTO:
 64+  BE21 FE 57            CP 'W'
 64+  BE23 CC 9E BD       CALL Z, GC_RIGHT              ; Desplaza ficha a la derecha
 65+  BE26 FE 4F            CP 'O'
 65+  BE28 CC 9E BD       CALL Z, GC_RIGHT              ; Desplaza ficha a la derecha
 66+  BE2B FE 51            CP 'Q'
 66+  BE2D CC 8D BD       CALL Z, GC_LEFT               ; Desplaza ficha a la izquierda
 67+  BE30 FE 49            CP 'I'
 67+  BE32 CC 8D BD       CALL Z, GC_LEFT               ; Desplaza ficha a la izquierda
 68+  BE35 3E FF            LD A, $FF
 69+  BE37 C9               RET
# file closed: C:\Users\Manuel Cencerrado\OneDrive - UFV\Escritorio\UFV\ING.INF\2\AOC\Practicas\Ejercicios\practicaConecta4\logic_flow.asm
 19   BE38                  INCLUDE "logic_checks.asm"   ; Comprobaciones de victoria y jugadas
# file opened: C:\Users\Manuel Cencerrado\OneDrive - UFV\Escritorio\UFV\ING.INF\2\AOC\Practicas\Ejercicios\practicaConecta4\logic_checks.asm
  1+  BE38              ; Lógica de comprobaciones del juego (Conecta 4)
  2+  BE38              ; Constantes y configuración:
  3+  BE38              ULTIMA_FICHA_COLUMNA EQU $C001 ; Byte (0-6) con la columna de la última ficha jugada
  4+  BE38              ULTIMA_FICHA_FILA EQU $C002    ; Byte (0-5) con la fila de la última ficha jugada
  5+  BE38              TABLERO_ANCHO EQU 7
  6+  BE38              TABLERO_ALTO EQU 6
  7+  BE38              ESTADO_TABLERO EQU $D000      ; dirección base en memoria donde se almacena el tablero (fila-major)
  8+  BE38              ; Nota: se espera que otras rutinas escriban la columna/fila en las direcciones ULTIMA_FICHA_* antes de llamar
  9+  BE38
 10+  BE38              ; Comrpueba el resultado del juego tras una jugada, necesita modificaciones
 11+  BE38              LC_COMPROBAR_RESULTADO:
 12+  BE38 CD 5D BE         CALL LC_COMPROBAR_VICTORIA_JUGADOR
 13+  BE3B FE 00            CP 0
 13+  BE3D C8             RET Z ; RET SI ALGUIEN GANÓ, A = 0
 14+  BE3E CD 48 BE         CALL LC_COMPROBAR_TABLERO_LLENO
 15+  BE41 FE 00            CP 0
 15+  BE43 D8             RET C ; RET SI NADIE GANÓ Y SE LLENÓ EL TABLERO, A = 1
 16+  BE44 3E 80            LD A, 128
 16+  BE46 B7             OR A
 17+  BE47 C9               RET ; RET SI NADIE GANÓ Y NO SE LLENÓ EL TABLERO, A = 128
 18+  BE48
 19+  BE48              ; Rutina para comprobar si el tablero se ha llenado
 20+  BE48              LC_COMPROBAR_TABLERO_LLENO:
 21+  BE48 DD 21 19 80      LD IX, TABLERO_ACTUAL
 22+  BE4C 06 07            LD B, 7
 23+  BE4E 11 06 00         LD DE, 6
 24+  BE51              CTL_BUCLE:
 25+  BE51 DD 7E 00         LD A, (IX)
 26+  BE54 B7               OR A
 27+  BE55 C8               RET Z ; RET SIN EMPATE, A = 0
 28+  BE56 DD 19            ADD IX, DE
 29+  BE58 10 F7            DJNZ CTL_BUCLE
 30+  BE5A 3E 01            LD A, 1
 31+  BE5C C9               RET ; RET CON EMPATE, A = 128
 32+  BE5D
 33+  BE5D              ; Rutina que comprueba si el jugador ha ganado por alguna línea, ya sea vertical, horizontal o diagonal.
 34+  BE5D              LC_COMPROBAR_VICTORIA_JUGADOR:
 35+  BE5D CD 7E BE         CALL LC_COMPROBAR_4_EN_RAYA_HORIZONTAL
 36+  BE60 FE 00            CP 0
 36+  BE62 C4 76 BE       CALL NZ, HAY_GANADOR
 37+  BE65 CD B4 BE         CALL LC_COMPROBAR_4_EN_RAYA_VERTICAL
 38+  BE68 FE 00            CP 0
 38+  BE6A C4 76 BE       CALL NZ, HAY_GANADOR
 39+  BE6D CD E4 BE         CALL LC_COMPROBAR_4_EN_RAYA_DIAGONALES
 40+  BE70 FE 00            CP 0
 40+  BE72 C4 76 BE       CALL NZ, HAY_GANADOR
 41+  BE75 C9               RET ; RET SIN GANADOR, A = 1, RET CON GANADOR, A = 0
 42+  BE76
 43+  BE76              ; Guarda en la variable ganador el color del jugador actual
 44+  BE76              HAY_GANADOR:
 45+  BE76 3A 0D 80         LD A, (COLOR_JUGADOR_ACTUAL)
 46+  BE79 32 0E 80         LD (GANADOR), A
 47+  BE7C AF               XOR A
 48+  BE7D C9               RET ; RET CON GANADOR, A = 0
 49+  BE7E
 50+  BE7E              ; ############################################################################
 51+  BE7E              ; ############### COMPROBAR 4 EN RAYA EN DISTINTAS DIRECCIONES ###############
 52+  BE7E              ; ############################################################################
 53+  BE7E
 54+  BE7E              ; Comprueba si se ha obtenido 4 en raya por línea horizontal
 55+  BE7E              LC_COMPROBAR_4_EN_RAYA_HORIZONTAL:
 56+  BE7E E5               PUSH HL
 57+  BE7F DD 21 19 80      LD IX, TABLERO_ACTUAL
 58+  BE83 CD E6 BF         CALL U_CALC_TABLERO_POS
 59+  BE86 11 F9 FF         LD DE, $FFF9 ; -7 en complemento a 2 para desplazarse por columnas hacia la izquierda en IX
 60+  BE89 0E 00            LD C, 0
 61+  BE8B              CONTAR_IZQUIERDA:
 62+  BE8B 3A 0C 80         LD A, (JUGADOR_ACTUAL) ; Se guarda el color del jugador actual
 63+  BE8E 47               LD B, A ; Se guarda en B
 64+  BE8F DD 19            ADD IX, DE ; Desplazamos IX una columna a la izquierda
 65+  BE91 DD 7E 00         LD A, (IX) ; Guardamos el contenido de IX en A
 66+  BE94 B8               CP B ; Comparamos con B
 67+  BE95 CC 5C BF         CALL Z, INC_CNT_IZQ ; Si son iguales, debemos incrementar el contador de consecutivos que hay hacia la 'izquierda' de la ficha
 68+  BE98 28 F1            JR Z, CONTAR_IZQUIERDA ; Si fueron iguales, podemos continuar contando más fichas en esta dirección
 69+  BE9A
 70+  BE9A E1               POP HL
 71+  BE9B CD E6 BF         CALL U_CALC_TABLERO_POS ; Volvemos al IX de la ficha que fue soltada en este turno
 72+  BE9E 11 07 00         LD DE, COLUMN_BOARD_SIZE ; Cargamos 7 en DE
 73+  BEA1              CONTAR_DERECHA: ; Mismo concepto que CONTAR_IZQUIERDA, pero desplaza en columnas hacia la derecha en vez de la izquierda
 74+  BEA1 3A 0C 80         LD A, (JUGADOR_ACTUAL)
 75+  BEA4 47               LD B, A
 76+  BEA5 DD 19            ADD IX, DE
 77+  BEA7 DD 7E 00         LD A, (IX)
 78+  BEAA B8               CP B
 79+  BEAB CC 66 BF         CALL Z, INC_CNT_DER
 80+  BEAE 28 F1            JR Z, CONTAR_DERECHA
 81+  BEB0 CD 45 BF         CALL CONTAR_TOTALES ; Cuenta el total de consecutivos a la izquierda y derecha de la ficha soltada.
 82+  BEB3 C9               RET
 83+  BEB4
 84+  BEB4              ; COMPROBACION DE VICTORIA EN VERTICAL
 85+  BEB4              LC_COMPROBAR_4_EN_RAYA_VERTICAL: ; Mismo concepto que comprobación en horizontal, pero puede hacer DEC IX e INC IX directamente
 86+  BEB4 E5               PUSH HL
 87+  BEB5 DD 21 19 80      LD IX, TABLERO_ACTUAL
 88+  BEB9 CD E6 BF         CALL U_CALC_TABLERO_POS
 89+  BEBC 0E 00            LD C, 0
 90+  BEBE              CONTAR_ARRIBA:
 91+  BEBE 3A 0C 80         LD A, (JUGADOR_ACTUAL)
 92+  BEC1 47               LD B, A
 93+  BEC2 DD 2B            DEC IX
 94+  BEC4 DD 7E 00         LD A, (IX)
 95+  BEC7 B8               CP B
 96+  BEC8 CC 5C BF         CALL Z, INC_CNT_IZQ
 97+  BECB 28 F1            JR Z, CONTAR_ARRIBA
 98+  BECD
 99+  BECD E1               POP HL
100+  BECE CD E6 BF         CALL U_CALC_TABLERO_POS
101+  BED1              CONTAR_ABAJO:
102+  BED1 3A 0C 80         LD A, (JUGADOR_ACTUAL)
103+  BED4 47               LD B, A
104+  BED5 DD 23            INC IX
105+  BED7 DD 7E 00         LD A, (IX)
106+  BEDA B8               CP B
107+  BEDB CC 66 BF         CALL Z, INC_CNT_DER
108+  BEDE 28 F1            JR Z, CONTAR_ABAJO
109+  BEE0 CD 45 BF         CALL CONTAR_TOTALES
110+  BEE3 C9               RET
111+  BEE4
112+  BEE4              ; COMPROBACION DE VICTORIA EN DIAGONALES
113+  BEE4              LC_COMPROBAR_4_EN_RAYA_DIAGONALES:
114+  BEE4 DD 21 19 80      LD IX, TABLERO_ACTUAL
115+  BEE8 CD E6 BF         CALL U_CALC_TABLERO_POS
116+  BEEB 0E 00            LD C, 0
117+  BEED E5               PUSH HL
118+  BEEE              CONTAR_UPPER_LEFT:
119+  BEEE                  ; DESPLAZAMIENTO DE IX
120+  BEEE 3A 0C 80         LD A, (JUGADOR_ACTUAL)
121+  BEF1 47               LD B, A
122+  BEF2 25               DEC H
122+  BEF3 2D             DEC L ; Movemos IX a la posición diagonal superior izquierda
123+  BEF4 CD E6 BF         CALL U_CALC_TABLERO_POS
124+  BEF7 DD 7E 00         LD A, (IX)
125+  BEFA B8               CP B
126+  BEFB CC 5C BF         CALL Z, INC_CNT_IZQ
127+  BEFE 28 EE            JR Z, CONTAR_UPPER_LEFT
128+  BF00 E1               POP HL
129+  BF01 E5               PUSH HL
130+  BF02              CONTAR_LOWER_RIGHT:
131+  BF02                  ; DESPLAZAMIENTO DE IX
132+  BF02 3A 0C 80         LD A, (JUGADOR_ACTUAL)
133+  BF05 47               LD B, A
134+  BF06 24               INC H
134+  BF07 2C             INC L ; Movemos IX a la posición diagonal inferior derecha
135+  BF08 CD E6 BF         CALL U_CALC_TABLERO_POS
136+  BF0B DD 7E 00         LD A, (IX)
137+  BF0E B8               CP B
138+  BF0F CC 66 BF         CALL Z, INC_CNT_DER
139+  BF12 28 EE            JR Z, CONTAR_LOWER_RIGHT
140+  BF14 E1               POP HL
141+  BF15 CD 45 BF         CALL CONTAR_TOTALES ; Contamos totales en esa diagonal Superior Izquierda + Inferior Derecha
142+  BF18 C0               RET NZ ; RET aquí si ya se consiguió que los totales superaran 3.
143+  BF19 E5               PUSH HL
144+  BF1A              CONTAR_UPPER_RIGHT: ; Mismo concepto que el conteo de la otra diagonal
145+  BF1A                  ; DESPLAZAMIENTO DE IX
146+  BF1A 3A 0C 80         LD A, (JUGADOR_ACTUAL)
147+  BF1D 47               LD B, A
148+  BF1E 25               DEC H
148+  BF1F 2C             INC L ; Movemos IX una fila arriba y una columna a la derecha
149+  BF20 CD E6 BF         CALL U_CALC_TABLERO_POS
150+  BF23 DD 7E 00         LD A, (IX)
151+  BF26 B8               CP B
152+  BF27 CC 66 BF         CALL Z, INC_CNT_DER
153+  BF2A 28 EE            JR Z, CONTAR_UPPER_RIGHT
154+  BF2C E1               POP HL
155+  BF2D E5               PUSH HL
156+  BF2E              CONTAR_LOWER_LEFT:
157+  BF2E                  ; DESPLAZAMIENTO DE IX
158+  BF2E 3A 0C 80         LD A, (JUGADOR_ACTUAL)
159+  BF31 47               LD B, A
160+  BF32 24               INC H
160+  BF33 2D             DEC L ; Movemos IX una fila abajo y una columna a la izquierda
161+  BF34 CD E6 BF         CALL U_CALC_TABLERO_POS
162+  BF37 DD 7E 00         LD A, (IX)
163+  BF3A B8               CP B
164+  BF3B CC 5C BF         CALL Z, INC_CNT_IZQ
165+  BF3E 28 EE            JR Z, CONTAR_LOWER_LEFT
166+  BF40 E1               POP HL
167+  BF41 CD 45 BF         CALL CONTAR_TOTALES
168+  BF44 C9               RET
169+  BF45
170+  BF45              ; Contar total de consecutivos a partir de un punto
171+  BF45              CONTAR_TOTALES:
172+  BF45 3A 0F 80         LD A, (LEFT_COUNTER) ; Guardamos el contador lateral 1
173+  BF48 4F               LD C, A ; Lo guardamos en C
174+  BF49 3A 10 80         LD A, (RIGHT_COUNTER) ; Guardamos el contador lateral 2
175+  BF4C 81               ADD A, C ; Le agregamos C - A = Left_Counter + Right_Counter
176+  BF4D 3C               INC A ; A = Left_Counter + Right_Counter + 1
177+  BF4E                  ; Ficha soltada + consecutivas a un lado + consecutivas al opuesto
178+  BF4E FE 04            CP 4 ; Comparamos con 4
179+  BF50 30 08            JR NC, SALIDA_CONTAR_TOTALES ; Si fue 4 o más, el flag carry estará en 0 = NC
180+  BF52 3E 00            LD A, 0 ; Guardar A = 0
181+  BF54 32 0F 80         LD (LEFT_COUNTER), A ; Reiniciamos los contadores
182+  BF57 32 10 80         LD (RIGHT_COUNTER), A
183+  BF5A              SALIDA_CONTAR_TOTALES:
184+  BF5A B7               OR A ; No modifica A pero activa flags según el caso
185+  BF5B C9               RET ; RET CON EL VALOR DE GANADOR (A != 0) o NO
186+  BF5C
187+  BF5C              ; Cuenta consecutivos a un lado de la ficha soltada
188+  BF5C              INC_CNT_IZQ:
189+  BF5C F5               PUSH AF
190+  BF5D 3A 0F 80         LD A, (LEFT_COUNTER)
191+  BF60 3C               INC A ; Incrementa el contador por 1
192+  BF61 32 0F 80         LD (LEFT_COUNTER), A ; Guarda el nuevo valor en la variable
193+  BF64 F1               POP AF
194+  BF65 C9               RET
195+  BF66
196+  BF66              ; Cuenta consecutivos al lado opuesto de la rutina superior
197+  BF66              INC_CNT_DER:
198+  BF66 F5               PUSH AF
199+  BF67 3A 10 80         LD A, (RIGHT_COUNTER)
200+  BF6A 3C               INC A ; Incrementa el contador por 1
201+  BF6B 32 10 80         LD (RIGHT_COUNTER), A ; Guarda el nuevo valor en la variable
202+  BF6E F1               POP AF
203+  BF6F C9               RET
204+  BF70
205+  BF70
206+  BF70              LC_SLOT_POINTER:
207+  BF70              ; SLOT_POINTER - Calcula dirección de videoram a partir de fila/columna del tablero, no de la pantalla
208+  BF70              ; H = fila del tablero, L = columna del tablero, HL = dirección de videoram
209+  BF70                  ; PREREQUISITO: HABER SELECCIONADO UNA FILA Y UNA COLUMNA (H Y L) SOBRE LA QUE SE QUIERE OBTENER UNA DIRECCIÓN VIDEORAM
210+  BF70                  ; H = FILA
211+  BF70                  ; L = COLUMNA
212+  BF70                  ; HL = DIRECCIÓN DE LA VIDEORAM
213+  BF70
214+  BF70 F5               PUSH AF
215+  BF71 7D               LD A, L
216+  BF72 85               ADD L
216+  BF73 85             ADD L
216+  BF74 C6 05          ADD 5
217+  BF76 6F               LD L, A
218+  BF77 7C               LD A, H ; 0 0 0 H4 H3 H2 H1 H0
219+  BF78 84               ADD H
219+  BF79 84             ADD H
219+  BF7A C6 02          ADD 2
220+  BF7C 67               LD H, A
221+  BF7D CB 27            SLA A
221+  BF7F CB 27          SLA A
221+  BF81 CB 27          SLA A
221+  BF83 CB 27          SLA A
221+  BF85 CB 27          SLA A ; H2 H1 H0 0 0 0 0 0
222+  BF87 B5               OR L ; H2 H1 H0 L4 L3 L2 L1 L0
223+  BF88 6F               LD L, A
224+  BF89 7C               LD A, H ; 0 0 0 H4 H3 H2 H1 H0
225+  BF8A CB 2F            SRA A
225+  BF8C CB 2F          SRA A
225+  BF8E CB 2F          SRA A; 0 0 0 0 0 0 H4 H3
226+  BF90 F6 58            OR $58 ; 0 1 0 1 1 0 H4 H3
227+  BF92 67               LD H, A
228+  BF93                  ; HL = 0 1 0 1 1 0 H4 H3 H2 H1 H0 L4 L3 L2 L1 L0
229+  BF93 F1               POP AF
230+  BF94 C9               RET
231+  BF95
232+  BF95              LC_VALIDPLAY:
233+  BF95                  ; Comprueba si la jugada solicitada por el jugador es válida:
234+  BF95                  ;   - Recibe en HL el valor actual de la ficha, no el valor al que se podría desplazar, será 0,L
235+  BF95                  ;   - Para Q/W y O/P (izquierda/derecha) se comprueba que la celda objetivo no esté ocupada
236+  BF95                  ;   - Para F se considerará válida si la columna no está ocupada en la posición del cursor
237+  BF95                  ;   - Para ENTER se considerará válida si la columna actual no está llena
238+  BF95 7A               LD A, D
239+  BF96 FE 51            CP 'Q'
239+  BF98 28 18          JR Z, VALIDLEFT
240+  BF9A FE 49            CP 'I'
240+  BF9C 28 14          JR Z, VALIDLEFT
241+  BF9E FE 57            CP 'W'
241+  BFA0 28 1F          JR Z, VALIDRIGHT
242+  BFA2 FE 4F            CP 'O'
242+  BFA4 28 1B          JR Z, VALIDRIGHT
243+  BFA6 FE 45            CP 'E'
243+  BFA8 28 26          JR Z, VALIDENTER
244+  BFAA FE 50            CP 'P'
244+  BFAC 28 22          JR Z, VALIDENTER
245+  BFAE FE 46            CP 'F'
245+  BFB0 28 2F          JR Z, VALID ; F = Fin de la partida, siempre es válido
246+  BFB2
247+  BFB2              ; Comprueba si fue una pulsación váida para mover la ficha a la izquierda
248+  BFB2              VALIDLEFT:
249+  BFB2 E5               PUSH HL
250+  BFB3 21 00 00         LD HL, $00
251+  BFB6 CD 70 BF         CALL LC_SLOT_POINTER
252+  BFB9 7E               LD A, (HL)
253+  BFBA E1               POP HL
254+  BFBB FE 80            CP BLINK ; si el atributo de color en HL es menor que blink (que lo será si no está sobre la posición más izquierda del tablero)
255+  BFBD 38 22            JR C, VALID ; se hará una activación del flag C, por lo que será válida la pulsación
256+  BFBF 18 1D            JR NONVALID
257+  BFC1
258+  BFC1              ; Comprueba si fue una pulsación válida para mover la ficha a la derecha
259+  BFC1              VALIDRIGHT:
260+  BFC1 E5               PUSH HL
261+  BFC2 21 06 00         LD HL, $06 ; mismo concepto que validleft, pero la comparación se hace con el contenido de la fila 0, columna 6 en vez de la 0,0
262+  BFC5 CD 70 BF         CALL LC_SLOT_POINTER
263+  BFC8 7E               LD A, (HL)
264+  BFC9 E1               POP HL
265+  BFCA FE 80            CP BLINK
266+  BFCC 38 13            JR C, VALID
267+  BFCE 18 0E            JR NONVALID
268+  BFD0              VALIDENTER: ; mismo concepto que validleft y right, pero la comparación se hace con la ficha inmediatamente inferior
269+  BFD0 D5               PUSH DE
269+  BFD1 E5             PUSH HL
270+  BFD2 CD E6 BF         CALL U_CALC_TABLERO_POS
271+  BFD5 DD 7E 00         LD A, (IX)
272+  BFD8 E1               POP HL
272+  BFD9 D1             POP DE
273+  BFDA FE 00            CP 0
273+  BFDC 28 03          JR Z, VALID ; si aquí no saltó a valid, lee directamente la siguiente instrucción,
274+  BFDE                                    ; que serán las correspondientes a NONVALID
275+  BFDE
276+  BFDE              NONVALID:
277+  BFDE 3E 01            LD A, 1
278+  BFE0 C9               RET
279+  BFE1              VALID:
280+  BFE1 3E 02            LD A, 2
281+  BFE3 C9               RET
282+  BFE4
283+  BFE4
# file closed: C:\Users\Manuel Cencerrado\OneDrive - UFV\Escritorio\UFV\ING.INF\2\AOC\Practicas\Ejercicios\practicaConecta4\logic_checks.asm
 20   BFE4                  INCLUDE "utilities.asm"      ; Rutinas que no son características de ninguna función particular
# file opened: C:\Users\Manuel Cencerrado\OneDrive - UFV\Escritorio\UFV\ING.INF\2\AOC\Practicas\Ejercicios\practicaConecta4\utilities.asm
  1+  BFE4 18 FE        UTILITIES: JR UTILITIES
  2+  BFE6
  3+  BFE6              U_CALC_TABLERO_POS:
  4+  BFE6                  ; Calcula IX = TABLERO_ACTUAL + (L * 7) + H
  5+  BFE6                  ; Donde H = row, L = columna en coordenadas originales de tablero
  6+  BFE6
  7+  BFE6 7D               LD A, L                    ; Guarda columna (L)
  8+  BFE7 47               LD B, A                    ; guarda L en B
  9+  BFE8 87               ADD A, A                   ; A = L * 2
 10+  BFE9 87               ADD A, A                   ; A = L * 4
 11+  BFEA 87               ADD A, A                   ; A = L * 8
 12+  BFEB 90               SUB B                      ; A = L * 7 (ya que 8L - L = 7L)
 13+  BFEC 84               ADD A, H                   ; A = (L * 7) + H
 14+  BFED
 15+  BFED DD 21 19 80      LD IX, TABLERO_ACTUAL      ; Dirección de (0,0)
 16+  BFF1 16 00            LD D, 0
 17+  BFF3 5F               LD E, A                    ; DE = desplazamiento
 18+  BFF4 DD 19            ADD IX, DE                 ; IX apunta a tablero actual (h,l)
 19+  BFF6
 20+  BFF6 C9               RET
 21+  BFF7
 22+  BFF7              ; Rutina de espera
 23+  BFF7              U_ESPERAR:
 24+  BFF7 C5               PUSH BC
 25+  BFF8 01 7B 2C         LD BC, 11387
 26+  BFFB
 27+  BFFB              ESPERAR_LOOP:
 28+  BFFB 0B               DEC BC                     ; 6C
 29+  BFFC 78               LD A, B                    ; 4C
 30+  BFFD B1               OR C                       ; 4C
 31+  BFFE 00               NOP                        ; 4C
 32+  BFFF 00               NOP                        ; 4C
 33+  C000 00               NOP                        ; 4C
 34+  C001 20 F8            JR NZ, ESPERAR_LOOP        ; 12C
 35+  C003
 36+  C003 C1               POP BC
 37+  C004 C9               RET
# file closed: C:\Users\Manuel Cencerrado\OneDrive - UFV\Escritorio\UFV\ING.INF\2\AOC\Practicas\Ejercicios\practicaConecta4\utilities.asm
 21   C005
 22   C005              ; INICIO DEL FLUJO DEL PROGRAMA FUNCIONAL
 23   C005              ; Pantalla de bienvenida y gestión de entrada inicial
 24   C005              INICIO:
 25   C005 CD B9 BB         CALL GB_BIENVENIDA           ; Dibuja pantalla de bienvenida
 26   C008 CD 51 80         CALL K_SON                   ; Lee teclado (S/N)
 27   C00B 7A               LD A, D
 28   C00C 32 B7 85         LD (CHAR_CARACTER), A        ; Guarda la tecla pulsada
 29   C00F 3E 06            LD A, COLOR_TEXTO_AMARILLO
 30   C011 CD 1E BC         CALL GB_PRINT_CHAR_SON       ; Imprime la tecla pulsada
 31   C014 3A B7 85         LD A, (CHAR_CARACTER)
 32   C017 FE 53            CP 'S'
 33   C019 CC 4E C0         CALL Z, LOGICA_JUEGO         ; Si se pulsó 'S', comienza la lógica del juego
 34   C01C FE 4E            CP 'N'
 35   C01E CC 21 C0         CALL Z, ADIOS                ; Si se pulsó 'N', muestra pantalla de despedida
 36   C021
 37   C021              ; Pantalla de despedida
 38   C021              ADIOS:
 39   C021 CD 2A BC         CALL GB_ADIOS                ; Dibuja pantalla de adiós
 40   C024              FINAL: ; Bucle final (espera y halt)
 41   C024 06 0A            LD B, 10
 42   C026 CD F7 BF         CALL U_ESPERAR
 43   C029 10 F9            DJNZ FINAL
 44   C02B 76               HALT
 45   C02C
 46   C02C              ; Pantalla de fin de partida y opción de reinicio
 47   C02C              FIN_NEXT:
 48   C02C CD 51 BC         CALL GB_FIN_NEXT             ; Dibuja pantalla de fin y pregunta S/N
 49   C02F CD 51 80         CALL K_SON                   ; Lee teclado (S/N)
 50   C032 7A               LD A, D
 51   C033 FE 53            CP 'S'
 52   C035 CC 4E C0         CALL Z, LOGICA_JUEGO         ; Si se pulsó 'S', inicia nuevo juego
 53   C038 FE 4E            CP 'N'
 54   C03A CC 21 C0         CALL Z, ADIOS                ; Si se pulsó 'N', muestra pantalla de despedida
 55   C03D
 56   C03D              EMPATE:
 57   C03D CD 5D BC         CALL GB_EMPATE
 58   C040 CD 51 80         CALL K_SON                   ; Lee teclado (S/N)
 59   C043 7A               LD A, D
 60   C044 FE 53            CP 'S'
 61   C046 CC 4E C0         CALL Z, LOGICA_JUEGO         ; Si se pulsó 'S', inicia nuevo juego
 62   C049 FE 4E            CP 'N'
 63   C04B CC 21 C0         CALL Z, ADIOS                ; Si se pulsó 'N', muestra pantalla de despedida
 64   C04E              ; Lógica principal del juego
 65   C04E              LOGICA_JUEGO:
 66   C04E CD A1 BC         CALL GB_PTLLA_INICIO_DE_JUEGO ; Dibuja pantalla de inicio de juego
 67   C051 CD DA BD         CALL LF_INICIALIZACION        ; Inicializa condiciones del juego
 68   C054              BUCLE_JUEGO:
 69   C054 CD E4 BD         CALL LF_SWITCH_JUGADOR        ; Cambia de jugador
 70   C057              GESTIONAR_JUGADA:
 71   C057 CD 4F BD         CALL GC_COLOR_JUGADOR_ACTUAL  ; Muestra el jugador actual en pantalla (HL = $5845)
 72   C05A              JUGADA:
 73   C05A CD 74 80         CALL K_LR_E_F             ; Lee entrada (Q/W/O/P/ENTER/F)
 74   C05D 7A               LD A, D
 75   C05E F5               PUSH AF
 76   C05F CD 95 BF         CALL LC_VALIDPLAY             ; Comprueba si la jugada es válida
 77   C062 FE 01            CP 1
 78   C064 28 F4            JR Z, JUGADA                  ; Si no fue válida, espera nueva jugada
 79   C066 F1               POP AF
 80   C067 FE 51            CP 'Q'
 80   C069 CC 21 BE       CALL Z, LF_JUGADA_DESPLAZAMIENTO ; Desplaza ficha a la derecha
 81   C06C FE 57            CP 'W'
 81   C06E CC 21 BE      CALL Z, LF_JUGADA_DESPLAZAMIENTO ; Desplaza ficha a la izquierda
 82   C071 FE 49            CP 'I'
 82   C073 CC 21 BE       CALL Z, LF_JUGADA_DESPLAZAMIENTO ; Desplaza ficha a la derecha
 83   C076 FE 4F            CP 'O'
 83   C078 CC 21 BE      CALL Z, LF_JUGADA_DESPLAZAMIENTO ; Desplaza ficha a la izquierda
 84   C07B FE FF            CP $FF
 84   C07D 28 DB          JR Z, JUGADA
 85   C07F FE 45            CP 'E'
 85   C081 CC AF BD       CALL Z, GC_ENTER
 86   C084 FE 50            CP 'P'
 86   C086 CC AF BD       CALL Z, GC_ENTER             ; Ejecuta acción de soltar ficha
 87   C089
 88   C089 FE 46            CP 'F'
 88   C08B CC 2C C0       CALL Z, FIN_NEXT              ; Termina partida
 89   C08E
 90   C08E 18 C4            JR BUCLE_JUEGO
 91   C090              ; Comprobación de fin de juego
 92   C090              COMPROBAR_FIN_JUEGO:
 93   C090 CD 38 BE         CALL LC_COMPROBAR_RESULTADO        ; Comprueba si hay victoria o empate
 94   C093 28 97            JR Z, FIN_NEXT ; HAY GANADOR
 95   C095 FE 40            CP 64
 96   C097 38 A4            JR C, EMPATE ; HUBO EMPATE
 97   C099 18 B9            JR BUCLE_JUEGO                ; Si no hay fin, sigue el juego
# file closed: C:\Users\Manuel Cencerrado\OneDrive - UFV\Escritorio\UFV\ING.INF\2\AOC\Practicas\Ejercicios\practicaConecta4\main.asm
